(i__main__
Config
p0
(dp1
S'use_vertical_flips'
p2
I01
sS'verbose'
p3
I01
sS'classifier_regr_std'
p4
(lp5
F8.0
aF8.0
aF4.0
aF4.0
asS'classifier_min_overlap'
p6
F0.1
sS'rot_90'
p7
I01
sS'class_mapping'
p8
(dp9
S'Coffee cup'
p10
I1
sS'bg'
p11
I4
sS'Computer mouse'
p12
I0
sS'Calculator'
p13
I2
sS'Apple'
p14
I3
ssS'use_horizontal_flips'
p15
I01
sS'rpn_max_overlap'
p16
F0.7
sS'network'
p17
S'vgg'
p18
sS'img_channel_mean'
p19
(lp20
F103.939
aF116.779
aF123.68
asS'record_path'
p21
S'/home/dank-engine/fiv_ws/src/fRcnn/model/record_new.csv'
p22
sS'balanced_classes'
p23
I00
sS'anchor_box_ratios'
p24
(lp25
(lp26
I1
aI1
aa(lp27
F0.7071067811865475
aF1.414213562373095
aa(lp28
F1.414213562373095
aF0.7071067811865475
aasS'img_scaling_factor'
p29
F1.0
sS'rpn_stride'
p30
I16
sS'num_rois'
p31
I4
sS'base_net_weights'
p32
S'/home/dank-engine/fiv_ws/src/fRcnn/model/vgg16_weights_tf_dim_ordering_tf_kernels.h5'
p33
sS'anchor_box_scales'
p34
(lp35
I64
aI128
aI256
asS'rpn_min_overlap'
p36
F0.3
sS'model_path'
p37
S'/home/dank-engine/fiv_ws/src/fRcnn/model/model_frcnn_new_vgg.hdf5'
p38
sS'classifier_max_overlap'
p39
F0.5
sS'std_scaling'
p40
F4.0
sS'im_size'
p41
I300
sb.